; Function Attrs: mustprogress uwtable
define hidden void @_ZN4lean23has_expr_metavar_strictERKNS_4exprE(ptr dead_on_unwind noalias writable sret(%"class.lean::optional") align 8 initializes((0, 1)) %0, ptr noundef nonnull align 8 dereferenceable(8) %1) local_unnamed_addr #0 personality ptr @__gxx_personality_v0 {
  %3 = alloca %"class.std::function.7", align 8
  %4 = load ptr, ptr %1, align 8, !tbaa !10
  %5 = getelementptr i8, ptr %4, i64 4
  %.val.i.i.i = load i32, ptr %5, align 4
  %6 = lshr i32 %.val.i.i.i, 13
  %7 = and i32 %6, 2040
  %8 = getelementptr inbounds nuw i8, ptr %4, i64 8
  %9 = zext nneg i32 %7 to i64
  %10 = getelementptr inbounds nuw i8, ptr %8, i64 %9
  %11 = load i64, ptr %10, align 8, !tbaa !25
  %12 = and i64 %11, 2199023255552
  %.not = icmp eq i64 %12, 0
  store i8 0, ptr %0, align 8, !tbaa !115
  br i1 %.not, label %33, label %13

13:                                               ; preds = %2
  call void @llvm.lifetime.start.p0(i64 32, ptr nonnull %3) #16
  %14 = ptrtoint ptr %0 to i64
  %15 = getelementptr inbounds nuw i8, ptr %3, i64 16
  %16 = getelementptr inbounds nuw i8, ptr %3, i64 24
  %17 = getelementptr inbounds nuw i8, ptr %3, i64 8
  store i64 0, ptr %17, align 8
  store i64 %14, ptr %3, align 8, !tbaa !117
  store ptr @"_ZNSt17_Function_handlerIFbRKN4lean4exprEEZNS0_23has_expr_metavar_strictES3_E3$_0E9_M_invokeERKSt9_Any_dataS3_", ptr %16, align 8, !tbaa !119
  store ptr @"_ZNSt17_Function_handlerIFbRKN4lean4exprEEZNS0_23has_expr_metavar_strictES3_E3$_0E10_M_managerERSt9_Any_dataRKS7_St18_Manager_operation", ptr %15, align 8, !tbaa !92
  invoke void @_ZN4lean8for_eachERKNS_4exprEOSt8functionIFbS2_EE(ptr noundef nonnull align 8 dereferenceable(8) %1, ptr noundef nonnull align 8 dereferenceable(32) %3)
          to label %18 unwind label %25

18:                                               ; preds = %13
  %19 = load ptr, ptr %15, align 8, !tbaa !92
  %.not.i = icmp eq ptr %19, null
  br i1 %.not.i, label %_ZNSt14_Function_baseD2Ev.exit, label %20

20:                                               ; preds = %18
  %21 = invoke noundef zeroext i1 %19(ptr noundef nonnull align 8 dereferenceable(32) %3, ptr noundef nonnull align 8 dereferenceable(32) %3, i32 noundef 3)
          to label %_ZNSt14_Function_baseD2Ev.exit unwind label %22

22:                                               ; preds = %20
  %23 = landingpad { ptr, i32 }
          catch ptr null
  %24 = extractvalue { ptr, i32 } %23, 0
  call void @__clang_call_terminate(ptr %24) #19
  unreachable

_ZNSt14_Function_baseD2Ev.exit:                   ; preds = %18, %20
  call void @llvm.lifetime.end.p0(i64 32, ptr nonnull %3) #16
  br label %33

25:                                               ; preds = %13
  %26 = landingpad { ptr, i32 }
          cleanup
  %27 = load ptr, ptr %15, align 8, !tbaa !92
  %.not.i4 = icmp eq ptr %27, null
  br i1 %.not.i4, label %_ZNSt14_Function_baseD2Ev.exit5, label %28

28:                                               ; preds = %25
  %29 = invoke noundef zeroext i1 %27(ptr noundef nonnull align 8 dereferenceable(32) %3, ptr noundef nonnull align 8 dereferenceable(32) %3, i32 noundef 3)
          to label %_ZNSt14_Function_baseD2Ev.exit5 unwind label %30

30:                                               ; preds = %28
  %31 = landingpad { ptr, i32 }
          catch ptr null
  %32 = extractvalue { ptr, i32 } %31, 0
  call void @__clang_call_terminate(ptr %32) #19
  unreachable

_ZNSt14_Function_baseD2Ev.exit5:                  ; preds = %25, %28
  call void @llvm.lifetime.end.p0(i64 32, ptr nonnull %3) #16
  call void @_ZN4lean8optionalINS_4exprEED2Ev(ptr noundef nonnull align 8 dereferenceable(16) %0) #16
  resume { ptr, i32 } %26

33:                                               ; preds = %2, %_ZNSt14_Function_baseD2Ev.exit
  ret void
}